; Function Attrs: cold noreturn nounwind uwtable
define dso_local void @pg_fatal(ptr noundef %0, ...) local_unnamed_addr #5 {
  %2 = alloca [1 x %struct.__va_list_tag], align 16
  call void @llvm.lifetime.start.p0(i64 24, ptr nonnull %2) #11
  call void @llvm.va_start.p0(ptr nonnull %2)
  call fastcc void @pg_log_v(i32 noundef 5, ptr noundef %0, ptr noundef %2)
  call void @llvm.va_end.p0(ptr nonnull %2)
  %3 = call i32 (ptr, ...) @pg_printf(ptr noundef nonnull @.str.4) #11
  call void @exit(i32 noundef 1) #13
  unreachable
}